; Function Attrs: mustprogress nofree norecurse nosync nounwind willreturn memory(argmem: read) uwtable
define noundef i32 @_ZThn8_NK6icu_756number4impl17ScientificHandler13getMultiplierEi(ptr nocapture noundef readonly %this, i32 noundef %magnitude) unnamed_addr #15 align 2 {
entry:
  %fSettings.i = getelementptr inbounds i8, ptr %this, i64 8
  %0 = load i8, ptr %fSettings.i, align 8
  %conv.i = sext i8 %0 to i32
  %fRequireMinInt.i = getelementptr inbounds i8, ptr %this, i64 9
  %1 = load i8, ptr %fRequireMinInt.i, align 1
  %2 = and i8 %1, 1
  %tobool.not.i = icmp eq i8 %2, 0
  br i1 %tobool.not.i, label %if.else.i, label %_ZNK6icu_756number4impl17ScientificHandler13getMultiplierEi.exit

if.else.i:                                        ; preds = %entry
  %cmp.i = icmp slt i8 %0, 2
  br i1 %cmp.i, label %_ZNK6icu_756number4impl17ScientificHandler13getMultiplierEi.exit, label %if.else4.i

if.else4.i:                                       ; preds = %if.else.i
  %rem.i = srem i32 %magnitude, %conv.i
  %add.i = add nsw i32 %rem.i, %conv.i
  %rem5.lhs.trunc.i = trunc i32 %add.i to i16
  %rem5.rhs.trunc.i = zext nneg i8 %0 to i16
  %rem56.i = srem i16 %rem5.lhs.trunc.i, %rem5.rhs.trunc.i
  %rem5.sext.i = sext i16 %rem56.i to i32
  %add6.i = add nsw i32 %rem5.sext.i, 1
  br label %_ZNK6icu_756number4impl17ScientificHandler13getMultiplierEi.exit

_ZNK6icu_756number4impl17ScientificHandler13getMultiplierEi.exit: ; preds = %entry, %if.else.i, %if.else4.i
  %digitsShown.0.i = phi i32 [ %add6.i, %if.else4.i ], [ %conv.i, %entry ], [ 1, %if.else.i ]
  %3 = xor i32 %magnitude, -1
  %sub8.i = add i32 %digitsShown.0.i, %3
  ret i32 %sub8.i
}